target datalayout = "e-m:e-p270:32:32-p271:32:32-p272:64:64-i64:64-i128:128-f80:128-n8:16:32:64-S128"
target triple = "x86_64-pc-linux-gnu"

%struct.JSValue = type { %union.JSValueUnion, i64 }
%union.JSValueUnion = type { double }

; Function Attrs: nounwind uwtable
define internal i32 @JS_IsException(i64 %0, i64 %1) #0 {
  %3 = alloca %struct.JSValue, align 8
  %4 = getelementptr inbounds { i64, i64 }, ptr %3, i32 0, i32 0
  store i64 %0, ptr %4, align 8
  %5 = getelementptr inbounds { i64, i64 }, ptr %3, i32 0, i32 1
  store i64 %1, ptr %5, align 8
  %6 = getelementptr inbounds %struct.JSValue, ptr %3, i32 0, i32 1
  %7 = load i64, ptr %6, align 8
  %8 = trunc i64 %7 to i32
  %9 = icmp eq i32 %8, 6
  %10 = xor i1 %9, true
  %11 = xor i1 %10, true
  %12 = zext i1 %11 to i32
  %13 = sext i32 %12 to i64
  %14 = trunc i64 %13 to i32
  ret i32 %14
}

; Function Attrs: nounwind uwtable
define internal { i64, i64 } @make_obj_error(ptr noundef %0, i64 %1, i64 %2, i32 noundef %3) #0 {
  %5 = alloca %struct.JSValue, align 8
  %6 = alloca ptr, align 8
  %7 = alloca i32, align 4
  %8 = alloca %struct.JSValue, align 8
  %9 = alloca %struct.JSValue, align 8
  %10 = alloca ptr, align 8
  %11 = alloca i32, align 4
  %12 = alloca %struct.JSValue, align 8
  %13 = alloca %struct.JSValue, align 8
  %14 = alloca %struct.JSValue, align 8
  %15 = getelementptr inbounds { i64, i64 }, ptr %9, i32 0, i32 0
  store i64 %1, ptr %15, align 8
  %16 = getelementptr inbounds { i64, i64 }, ptr %9, i32 0, i32 1
  store i64 %2, ptr %16, align 8
  store ptr %0, ptr %10, align 8
  store i32 %3, ptr %11, align 4
  %17 = getelementptr inbounds { i64, i64 }, ptr %9, i32 0, i32 0
  %18 = load i64, ptr %17, align 8
  %19 = getelementptr inbounds { i64, i64 }, ptr %9, i32 0, i32 1
  %20 = load i64, ptr %19, align 8
  %21 = call i32 @JS_IsException(i64 %18, i64 %20)
  %22 = icmp ne i32 %21, 0
  br i1 %22, label %23, label %24

23:                                               ; preds = %4
  call void @llvm.memcpy.p0.p0.i64(ptr align 8 %8, ptr align 8 %9, i64 16, i1 false)
  br label %70

24:                                               ; preds = %4
  %25 = load ptr, ptr %10, align 8
  %26 = call { i64, i64 } @JS_NewArray(ptr noundef %25)
  %27 = getelementptr inbounds { i64, i64 }, ptr %13, i32 0, i32 0
  %28 = extractvalue { i64, i64 } %26, 0
  store i64 %28, ptr %27, align 8
  %29 = getelementptr inbounds { i64, i64 }, ptr %13, i32 0, i32 1
  %30 = extractvalue { i64, i64 } %26, 1
  store i64 %30, ptr %29, align 8
  call void @llvm.memcpy.p0.p0.i64(ptr align 8 %12, ptr align 8 %13, i64 16, i1 false)
  %31 = getelementptr inbounds { i64, i64 }, ptr %12, i32 0, i32 0
  %32 = load i64, ptr %31, align 8
  %33 = getelementptr inbounds { i64, i64 }, ptr %12, i32 0, i32 1
  %34 = load i64, ptr %33, align 8
  %35 = call i32 @JS_IsException(i64 %32, i64 %34)
  %36 = icmp ne i32 %35, 0
  br i1 %36, label %37, label %40

37:                                               ; preds = %24
  %38 = getelementptr inbounds %struct.JSValue, ptr %8, i32 0, i32 0
  store i32 0, ptr %38, align 8
  %39 = getelementptr inbounds %struct.JSValue, ptr %8, i32 0, i32 1
  store i64 6, ptr %39, align 8
  br label %70

40:                                               ; preds = %24
  %41 = load ptr, ptr %10, align 8
  %42 = getelementptr inbounds { i64, i64 }, ptr %12, i32 0, i32 0
  %43 = load i64, ptr %42, align 8
  %44 = getelementptr inbounds { i64, i64 }, ptr %12, i32 0, i32 1
  %45 = load i64, ptr %44, align 8
  %46 = getelementptr inbounds { i64, i64 }, ptr %9, i32 0, i32 0
  %47 = load i64, ptr %46, align 8
  %48 = getelementptr inbounds { i64, i64 }, ptr %9, i32 0, i32 1
  %49 = load i64, ptr %48, align 8
  %50 = call i32 @JS_DefinePropertyValueUint32(ptr noundef %41, i64 %43, i64 %45, i32 noundef 0, i64 %47, i64 %49, i32 noundef 7)
  %51 = load ptr, ptr %10, align 8
  %52 = load ptr, ptr %10, align 8
  %53 = load i32, ptr %11, align 4
  store ptr %52, ptr %6, align 8
  store i32 %53, ptr %7, align 4
  %54 = load i32, ptr %7, align 4
  store i32 %54, ptr %5, align 8
  %55 = getelementptr inbounds %struct.JSValue, ptr %5, i32 0, i32 1
  store i64 0, ptr %55, align 8
  %56 = load { i64, i64 }, ptr %5, align 8
  %57 = getelementptr inbounds { i64, i64 }, ptr %14, i32 0, i32 0
  %58 = extractvalue { i64, i64 } %56, 0
  store i64 %58, ptr %57, align 8
  %59 = getelementptr inbounds { i64, i64 }, ptr %14, i32 0, i32 1
  %60 = extractvalue { i64, i64 } %56, 1
  store i64 %60, ptr %59, align 8
  %61 = getelementptr inbounds { i64, i64 }, ptr %12, i32 0, i32 0
  %62 = load i64, ptr %61, align 8
  %63 = getelementptr inbounds { i64, i64 }, ptr %12, i32 0, i32 1
  %64 = load i64, ptr %63, align 8
  %65 = getelementptr inbounds { i64, i64 }, ptr %14, i32 0, i32 0
  %66 = load i64, ptr %65, align 8
  %67 = getelementptr inbounds { i64, i64 }, ptr %14, i32 0, i32 1
  %68 = load i64, ptr %67, align 8
  %69 = call i32 @JS_DefinePropertyValueUint32(ptr noundef %51, i64 %62, i64 %64, i32 noundef 1, i64 %66, i64 %68, i32 noundef 7)
  call void @llvm.memcpy.p0.p0.i64(ptr align 8 %8, ptr align 8 %12, i64 16, i1 false)
  br label %70

70:                                               ; preds = %40, %37, %23
  %71 = load { i64, i64 }, ptr %8, align 8
  ret { i64, i64 } %71
}

; Function Attrs: nounwind uwtable
define internal { i64, i64 } @make_string_error(ptr noundef %0, ptr noundef %1, i32 noundef %2) #0 {
  %4 = alloca %struct.JSValue, align 8
  %5 = alloca ptr, align 8
  %6 = alloca ptr, align 8
  %7 = alloca i32, align 4
  %8 = alloca %struct.JSValue, align 8
  store ptr %0, ptr %5, align 8
  store ptr %1, ptr %6, align 8
  store i32 %2, ptr %7, align 4
  %9 = load ptr, ptr %5, align 8
  %10 = load ptr, ptr %5, align 8
  %11 = load ptr, ptr %6, align 8
  %12 = call { i64, i64 } @JS_NewString(ptr noundef %10, ptr noundef %11)
  %13 = getelementptr inbounds { i64, i64 }, ptr %8, i32 0, i32 0
  %14 = extractvalue { i64, i64 } %12, 0
  store i64 %14, ptr %13, align 8
  %15 = getelementptr inbounds { i64, i64 }, ptr %8, i32 0, i32 1
  %16 = extractvalue { i64, i64 } %12, 1
  store i64 %16, ptr %15, align 8
  %17 = load i32, ptr %7, align 4
  %18 = getelementptr inbounds { i64, i64 }, ptr %8, i32 0, i32 0
  %19 = load i64, ptr %18, align 8
  %20 = getelementptr inbounds { i64, i64 }, ptr %8, i32 0, i32 1
  %21 = load i64, ptr %20, align 8
  %22 = call { i64, i64 } @make_obj_error(ptr noundef %9, i64 %19, i64 %21, i32 noundef %17)
  %23 = getelementptr inbounds { i64, i64 }, ptr %4, i32 0, i32 0
  %24 = extractvalue { i64, i64 } %22, 0
  store i64 %24, ptr %23, align 8
  %25 = getelementptr inbounds { i64, i64 }, ptr %4, i32 0, i32 1
  %26 = extractvalue { i64, i64 } %22, 1
  store i64 %26, ptr %25, align 8
  %27 = load { i64, i64 }, ptr %4, align 8
  ret { i64, i64 } %27
}

; Function Attrs: nounwind uwtable
define internal { i64, i64 } @js_os_getcwd(ptr noundef %0, i64 %1, i64 %2, i32 noundef %3, ptr noundef %4) #0 {
  %6 = alloca %struct.JSValue, align 8
  %7 = alloca %struct.JSValue, align 8
  %8 = alloca ptr, align 8
  %9 = alloca i32, align 4
  %10 = alloca ptr, align 8
  %11 = alloca [4096 x i8], align 16
  %12 = alloca i32, align 4
  %13 = getelementptr inbounds { i64, i64 }, ptr %7, i32 0, i32 0
  store i64 %1, ptr %13, align 8
  %14 = getelementptr inbounds { i64, i64 }, ptr %7, i32 0, i32 1
  store i64 %2, ptr %14, align 8
  store ptr %0, ptr %8, align 8
  store i32 %3, ptr %9, align 4
  store ptr %4, ptr %10, align 8
  %15 = getelementptr inbounds [4096 x i8], ptr %11, i64 0, i64 0
  %16 = call ptr @getcwd(ptr noundef %15, i64 noundef 4096) #12
  %17 = icmp ne ptr %16, null
  br i1 %17, label %22, label %18

18:                                               ; preds = %5
  %19 = getelementptr [4096 x i8], ptr %11, i64 0, i64 0
  store i8 0, ptr %19, align 16
  %20 = call ptr @__errno_location() #10
  %21 = load i32, ptr %20, align 4
  store i32 %21, ptr %12, align 4
  br label %23

22:                                               ; preds = %5
  store i32 0, ptr %12, align 4
  br label %23

23:                                               ; preds = %22, %18
  %24 = load ptr, ptr %8, align 8
  %25 = getelementptr inbounds [4096 x i8], ptr %11, i64 0, i64 0
  %26 = load i32, ptr %12, align 4
  %27 = call { i64, i64 } @make_string_error(ptr noundef %24, ptr noundef %25, i32 noundef %26)
  %28 = getelementptr inbounds { i64, i64 }, ptr %6, i32 0, i32 0
  %29 = extractvalue { i64, i64 } %27, 0
  store i64 %29, ptr %28, align 8
  %30 = getelementptr inbounds { i64, i64 }, ptr %6, i32 0, i32 1
  %31 = extractvalue { i64, i64 } %27, 1
  store i64 %31, ptr %30, align 8
  %32 = load { i64, i64 }, ptr %6, align 8
  ret { i64, i64 } %32
}