; Function Attrs: nounwind uwtable
define internal { i64, i64 } @js_os_getcwd(ptr noundef %0, i64 %1, i64 %2, i32 %3, ptr nocapture readnone %4) #0 {
  %6 = alloca [4096 x i8], align 16
  %7 = call ptr @getcwd(ptr noundef nonnull %6, i64 noundef 4096) #29
  %.not = icmp eq ptr %7, null
  br i1 %.not, label %8, label %12

8:                                                ; preds = %5
  store i8 0, ptr %6, align 16
  %9 = tail call ptr @__errno_location() #28
  %10 = load i32, ptr %9, align 4
  %11 = zext i32 %10 to i64
  br label %12

12:                                               ; preds = %5, %8
  %.0 = phi i64 [ %11, %8 ], [ 0, %5 ]
  %13 = call { i64, i64 } @JS_NewString(ptr noundef %0, ptr noundef nonnull %6) #29
  %14 = extractvalue { i64, i64 } %13, 0
  %15 = extractvalue { i64, i64 } %13, 1
  %16 = and i64 %15, 4294967295
  %.not.i.i = icmp eq i64 %16, 6
  br i1 %.not.i.i, label %17, label %18

17:                                               ; preds = %12
  %.sroa.416.0.extract.shift17.i.i = and i64 %14, -4294967296
  br label %make_string_error.exit

18:                                               ; preds = %12
  %19 = call { i64, i64 } @JS_NewArray(ptr noundef %0) #29
  %20 = extractvalue { i64, i64 } %19, 1
  %21 = and i64 %20, 4294967295
  %.not27.i.i = icmp eq i64 %21, 6
  br i1 %.not27.i.i, label %make_string_error.exit, label %22

22:                                               ; preds = %18
  %23 = extractvalue { i64, i64 } %19, 0
  %24 = call i32 @JS_DefinePropertyValueUint32(ptr noundef %0, i64 %23, i64 %20, i32 noundef 0, i64 %14, i64 %15, i32 noundef 7) #29
  %25 = call i32 @JS_DefinePropertyValueUint32(ptr noundef %0, i64 %23, i64 %20, i32 noundef 1, i64 %.0, i64 0, i32 noundef 7) #29
  %.sroa.416.0.extract.shift.i.i = and i64 %23, -4294967296
  br label %make_string_error.exit

make_string_error.exit:                           ; preds = %17, %18, %22
  %.sroa.014.0.i.i = phi i64 [ %14, %17 ], [ %23, %22 ], [ 0, %18 ]
  %.sroa.416.sroa.0.0.i.i = phi i64 [ %.sroa.416.0.extract.shift17.i.i, %17 ], [ %.sroa.416.0.extract.shift.i.i, %22 ], [ 0, %18 ]
  %.sroa.416.sroa.3.0.i.i = phi i64 [ %15, %17 ], [ %20, %22 ], [ 6, %18 ]
  %.sroa.014.0.insert.ext.i.i = and i64 %.sroa.014.0.i.i, 4294967295
  %.sroa.014.0.insert.insert.i.i = or disjoint i64 %.sroa.416.sroa.0.0.i.i, %.sroa.014.0.insert.ext.i.i
  %.fca.0.insert.i.i = insertvalue { i64, i64 } poison, i64 %.sroa.014.0.insert.insert.i.i, 0
  %.fca.1.insert.i.i = insertvalue { i64, i64 } %.fca.0.insert.i.i, i64 %.sroa.416.sroa.3.0.i.i, 1
  ret { i64, i64 } %.fca.1.insert.i.i
}